target datalayout = "e-m:e-p270:32:32-p271:32:32-p272:64:64-i64:64-i128:128-f80:128-n8:16:32:64-S128"
target triple = "x86_64-pc-linux-gnu"

%struct.DdManager = type { %struct.DdNode, ptr, ptr, ptr, ptr, ptr, ptr, ptr, i32, i32, double, double, double, i32, i32, i32, i32, i32, i32, ptr, ptr, %struct.DdSubtable, i32, i32, i32, i32, i32, i32, i32, double, i32, i32, i32, ptr, i64, double, i32, ptr, ptr, ptr, ptr, ptr, ptr, ptr, i32, ptr, ptr, ptr, ptr, ptr, ptr, i32, i32, i32, double, i32, i32, i32, i32, double, double, i32, i32, i32, i32, i32, i32, i32, i32, i32, ptr, ptr, i32, i32, i32, i32, i32, i32, ptr, ptr, ptr, ptr, ptr, ptr, ptr, ptr, i32, i64, i64, i64, i32, i64, i64, double, double, double, double, double, double, i32, ptr, ptr, i64 }
%struct.DdNode = type { i32, i32, ptr, %union.anon, i64 }
%union.anon = type { %struct.DdChildren }
%struct.DdChildren = type { ptr, ptr }
%struct.DdSubtable = type { ptr, i32, i32, i32, i32, i32, i32, i32, i32, i32, i32, i32 }
%struct.ApproxInfo = type { ptr, ptr, ptr, ptr, i32, double, i32, double }
%struct.NodeData = type { double, double, i32, i8, i8, i16, ptr, ptr }

@.str.3 = private unnamed_addr constant [47 x i8] c"Something is wrong, ought to be in info table\0A\00", align 1

; Function Attrs: nounwind uwtable
define internal ptr @UAbuildSubset(ptr noundef %0, ptr noundef %1, ptr noundef %2) #0 {
  %4 = alloca ptr, align 8
  %5 = alloca ptr, align 8
  %6 = alloca ptr, align 8
  %7 = alloca ptr, align 8
  %8 = alloca ptr, align 8
  %9 = alloca ptr, align 8
  %10 = alloca ptr, align 8
  %11 = alloca ptr, align 8
  %12 = alloca ptr, align 8
  %13 = alloca ptr, align 8
  %14 = alloca ptr, align 8
  %15 = alloca i32, align 4
  store ptr %0, ptr %5, align 8, !tbaa !3
  store ptr %1, ptr %6, align 8, !tbaa !8
  store ptr %2, ptr %7, align 8, !tbaa !33
  call void @llvm.lifetime.start.p0(i64 8, ptr %8) #7
  call void @llvm.lifetime.start.p0(i64 8, ptr %9) #7
  call void @llvm.lifetime.start.p0(i64 8, ptr %10) #7
  call void @llvm.lifetime.start.p0(i64 8, ptr %11) #7
  call void @llvm.lifetime.start.p0(i64 8, ptr %12) #7
  call void @llvm.lifetime.start.p0(i64 8, ptr %13) #7
  call void @llvm.lifetime.start.p0(i64 8, ptr %14) #7
  %16 = load ptr, ptr %6, align 8, !tbaa !8
  %17 = ptrtoint ptr %16 to i64
  %18 = and i64 %17, -2
  %19 = inttoptr i64 %18 to ptr
  %20 = getelementptr inbounds nuw %struct.DdNode, ptr %19, i32 0, i32 0
  %21 = load i32, ptr %20, align 8, !tbaa !32
  %22 = icmp eq i32 %21, 2147483647
  br i1 %22, label %23, label %25

23:                                               ; preds = %3
  %24 = load ptr, ptr %6, align 8, !tbaa !8
  store ptr %24, ptr %4, align 8
  store i32 1, ptr %15, align 4
  br label %228

25:                                               ; preds = %3
  %26 = load ptr, ptr %6, align 8, !tbaa !8
  %27 = ptrtoint ptr %26 to i64
  %28 = and i64 %27, -2
  %29 = inttoptr i64 %28 to ptr
  store ptr %29, ptr %10, align 8, !tbaa !8
  %30 = load ptr, ptr %7, align 8, !tbaa !33
  %31 = getelementptr inbounds nuw %struct.ApproxInfo, ptr %30, i32 0, i32 3
  %32 = load ptr, ptr %31, align 8, !tbaa !40
  %33 = load ptr, ptr %10, align 8, !tbaa !8
  %34 = call i32 @st__lookup(ptr noundef %32, ptr noundef %33, ptr noundef %14)
  %35 = icmp ne i32 %34, 0
  br i1 %35, label %36, label %71

36:                                               ; preds = %25
  %37 = load ptr, ptr %14, align 8, !tbaa !57
  %38 = getelementptr inbounds nuw %struct.NodeData, ptr %37, i32 0, i32 4
  %39 = load i8, ptr %38, align 1, !tbaa !78
  %40 = sext i8 %39 to i32
  %41 = icmp eq i32 %40, 1
  br i1 %41, label %42, label %46

42:                                               ; preds = %36
  %43 = load ptr, ptr %7, align 8, !tbaa !33
  %44 = getelementptr inbounds nuw %struct.ApproxInfo, ptr %43, i32 0, i32 1
  %45 = load ptr, ptr %44, align 8, !tbaa !52
  store ptr %45, ptr %4, align 8
  store i32 1, ptr %15, align 4
  br label %228

46:                                               ; preds = %36
  %47 = load ptr, ptr %10, align 8, !tbaa !8
  %48 = load ptr, ptr %6, align 8, !tbaa !8
  %49 = icmp eq ptr %47, %48
  br i1 %49, label %50, label %60

50:                                               ; preds = %46
  %51 = load ptr, ptr %14, align 8, !tbaa !57
  %52 = getelementptr inbounds nuw %struct.NodeData, ptr %51, i32 0, i32 6
  %53 = load ptr, ptr %52, align 8, !tbaa !80
  %54 = icmp ne ptr %53, null
  br i1 %54, label %55, label %59

55:                                               ; preds = %50
  %56 = load ptr, ptr %14, align 8, !tbaa !57
  %57 = getelementptr inbounds nuw %struct.NodeData, ptr %56, i32 0, i32 6
  %58 = load ptr, ptr %57, align 8, !tbaa !80
  store ptr %58, ptr %4, align 8
  store i32 1, ptr %15, align 4
  br label %228

59:                                               ; preds = %50
  br label %70

60:                                               ; preds = %46
  %61 = load ptr, ptr %14, align 8, !tbaa !57
  %62 = getelementptr inbounds nuw %struct.NodeData, ptr %61, i32 0, i32 7
  %63 = load ptr, ptr %62, align 8, !tbaa !81
  %64 = icmp ne ptr %63, null
  br i1 %64, label %65, label %69

65:                                               ; preds = %60
  %66 = load ptr, ptr %14, align 8, !tbaa !57
  %67 = getelementptr inbounds nuw %struct.NodeData, ptr %66, i32 0, i32 7
  %68 = load ptr, ptr %67, align 8, !tbaa !81
  store ptr %68, ptr %4, align 8
  store i32 1, ptr %15, align 4
  br label %228

69:                                               ; preds = %60
  br label %70

70:                                               ; preds = %69, %59
  br label %78

71:                                               ; preds = %25
  %72 = load ptr, ptr %5, align 8, !tbaa !3
  %73 = getelementptr inbounds nuw %struct.DdManager, ptr %72, i32 0, i32 85
  %74 = load ptr, ptr %73, align 8, !tbaa !31
  %75 = call i32 (ptr, ptr, ...) @fprintf(ptr noundef %74, ptr noundef @.str.3) #7
  %76 = load ptr, ptr %5, align 8, !tbaa !3
  %77 = getelementptr inbounds nuw %struct.DdManager, ptr %76, i32 0, i32 86
  store i32 5, ptr %77, align 8, !tbaa !35
  store ptr null, ptr %4, align 8
  store i32 1, ptr %15, align 4
  br label %228

78:                                               ; preds = %70
  %79 = load ptr, ptr %10, align 8, !tbaa !8
  %80 = getelementptr inbounds nuw %struct.DdNode, ptr %79, i32 0, i32 3
  %81 = getelementptr inbounds nuw %struct.DdChildren, ptr %80, i32 0, i32 0
  %82 = load ptr, ptr %81, align 8, !tbaa !79
  %83 = ptrtoint ptr %82 to i64
  %84 = load ptr, ptr %6, align 8, !tbaa !8
  %85 = ptrtoint ptr %84 to i64
  %86 = and i64 %85, 1
  %87 = trunc i64 %86 to i32
  %88 = sext i32 %87 to i64
  %89 = xor i64 %83, %88
  %90 = inttoptr i64 %89 to ptr
  store ptr %90, ptr %8, align 8, !tbaa !8
  %91 = load ptr, ptr %10, align 8, !tbaa !8
  %92 = getelementptr inbounds nuw %struct.DdNode, ptr %91, i32 0, i32 3
  %93 = getelementptr inbounds nuw %struct.DdChildren, ptr %92, i32 0, i32 1
  %94 = load ptr, ptr %93, align 8, !tbaa !79
  %95 = ptrtoint ptr %94 to i64
  %96 = load ptr, ptr %6, align 8, !tbaa !8
  %97 = ptrtoint ptr %96 to i64
  %98 = and i64 %97, 1
  %99 = trunc i64 %98 to i32
  %100 = sext i32 %99 to i64
  %101 = xor i64 %95, %100
  %102 = inttoptr i64 %101 to ptr
  store ptr %102, ptr %9, align 8, !tbaa !8
  %103 = load ptr, ptr %5, align 8, !tbaa !3
  %104 = load ptr, ptr %8, align 8, !tbaa !8
  %105 = load ptr, ptr %7, align 8, !tbaa !33
  %106 = call ptr @UAbuildSubset(ptr noundef %103, ptr noundef %104, ptr noundef %105)
  store ptr %106, ptr %11, align 8, !tbaa !8
  %107 = load ptr, ptr %11, align 8, !tbaa !8
  %108 = icmp eq ptr %107, null
  br i1 %108, label %109, label %110

109:                                              ; preds = %78
  store ptr null, ptr %4, align 8
  store i32 1, ptr %15, align 4
  br label %228

110:                                              ; preds = %78
  %111 = load ptr, ptr %11, align 8, !tbaa !8
  %112 = ptrtoint ptr %111 to i64
  %113 = and i64 %112, -2
  %114 = inttoptr i64 %113 to ptr
  %115 = getelementptr inbounds nuw %struct.DdNode, ptr %114, i32 0, i32 1
  %116 = load i32, ptr %115, align 4, !tbaa !82
  %117 = add i32 %116, 1
  store i32 %117, ptr %115, align 4, !tbaa !82
  %118 = load ptr, ptr %5, align 8, !tbaa !3
  %119 = load ptr, ptr %9, align 8, !tbaa !8
  %120 = load ptr, ptr %7, align 8, !tbaa !33
  %121 = call ptr @UAbuildSubset(ptr noundef %118, ptr noundef %119, ptr noundef %120)
  store ptr %121, ptr %12, align 8, !tbaa !8
  %122 = load ptr, ptr %12, align 8, !tbaa !8
  %123 = icmp eq ptr %122, null
  br i1 %123, label %124, label %127

124:                                              ; preds = %110
  %125 = load ptr, ptr %5, align 8, !tbaa !3
  %126 = load ptr, ptr %11, align 8, !tbaa !8
  call void @Cudd_RecursiveDeref(ptr noundef %125, ptr noundef %126)
  store ptr null, ptr %4, align 8
  store i32 1, ptr %15, align 4
  br label %228

127:                                              ; preds = %110
  %128 = load ptr, ptr %12, align 8, !tbaa !8
  %129 = ptrtoint ptr %128 to i64
  %130 = and i64 %129, -2
  %131 = inttoptr i64 %130 to ptr
  %132 = getelementptr inbounds nuw %struct.DdNode, ptr %131, i32 0, i32 1
  %133 = load i32, ptr %132, align 4, !tbaa !82
  %134 = add i32 %133, 1
  store i32 %134, ptr %132, align 4, !tbaa !82
  %135 = load ptr, ptr %11, align 8, !tbaa !8
  %136 = ptrtoint ptr %135 to i64
  %137 = and i64 %136, 1
  %138 = trunc i64 %137 to i32
  %139 = icmp ne i32 %138, 0
  br i1 %139, label %140, label %176

140:                                              ; preds = %127
  %141 = load ptr, ptr %11, align 8, !tbaa !8
  %142 = ptrtoint ptr %141 to i64
  %143 = xor i64 %142, 1
  %144 = inttoptr i64 %143 to ptr
  store ptr %144, ptr %11, align 8, !tbaa !8
  %145 = load ptr, ptr %12, align 8, !tbaa !8
  %146 = ptrtoint ptr %145 to i64
  %147 = xor i64 %146, 1
  %148 = inttoptr i64 %147 to ptr
  store ptr %148, ptr %12, align 8, !tbaa !8
  %149 = load ptr, ptr %11, align 8, !tbaa !8
  %150 = load ptr, ptr %12, align 8, !tbaa !8
  %151 = icmp eq ptr %149, %150
  br i1 %151, label %152, label %154

152:                                              ; preds = %140
  %153 = load ptr, ptr %11, align 8, !tbaa !8
  br label %162

154:                                              ; preds = %140
  %155 = load ptr, ptr %5, align 8, !tbaa !3
  %156 = load ptr, ptr %10, align 8, !tbaa !8
  %157 = getelementptr inbounds nuw %struct.DdNode, ptr %156, i32 0, i32 0
  %158 = load i32, ptr %157, align 8, !tbaa !32
  %159 = load ptr, ptr %11, align 8, !tbaa !8
  %160 = load ptr, ptr %12, align 8, !tbaa !8
  %161 = call ptr @cuddUniqueInter(ptr noundef %155, i32 noundef %158, ptr noundef %159, ptr noundef %160)
  br label %162

162:                                              ; preds = %154, %152
  %163 = phi ptr [ %153, %152 ], [ %161, %154 ]
  store ptr %163, ptr %13, align 8, !tbaa !8
  %164 = load ptr, ptr %13, align 8, !tbaa !8
  %165 = icmp eq ptr %164, null
  br i1 %165, label %166, label %171

166:                                              ; preds = %162
  %167 = load ptr, ptr %5, align 8, !tbaa !3
  %168 = load ptr, ptr %12, align 8, !tbaa !8
  call void @Cudd_RecursiveDeref(ptr noundef %167, ptr noundef %168)
  %169 = load ptr, ptr %5, align 8, !tbaa !3
  %170 = load ptr, ptr %11, align 8, !tbaa !8
  call void @Cudd_RecursiveDeref(ptr noundef %169, ptr noundef %170)
  store ptr null, ptr %4, align 8
  store i32 1, ptr %15, align 4
  br label %228

171:                                              ; preds = %162
  %172 = load ptr, ptr %13, align 8, !tbaa !8
  %173 = ptrtoint ptr %172 to i64
  %174 = xor i64 %173, 1
  %175 = inttoptr i64 %174 to ptr
  store ptr %175, ptr %13, align 8, !tbaa !8
  br label %200

176:                                              ; preds = %127
  %177 = load ptr, ptr %11, align 8, !tbaa !8
  %178 = load ptr, ptr %12, align 8, !tbaa !8
  %179 = icmp eq ptr %177, %178
  br i1 %179, label %180, label %182

180:                                              ; preds = %176
  %181 = load ptr, ptr %11, align 8, !tbaa !8
  br label %190

182:                                              ; preds = %176
  %183 = load ptr, ptr %5, align 8, !tbaa !3
  %184 = load ptr, ptr %10, align 8, !tbaa !8
  %185 = getelementptr inbounds nuw %struct.DdNode, ptr %184, i32 0, i32 0
  %186 = load i32, ptr %185, align 8, !tbaa !32
  %187 = load ptr, ptr %11, align 8, !tbaa !8
  %188 = load ptr, ptr %12, align 8, !tbaa !8
  %189 = call ptr @cuddUniqueInter(ptr noundef %183, i32 noundef %186, ptr noundef %187, ptr noundef %188)
  br label %190

190:                                              ; preds = %182, %180
  %191 = phi ptr [ %181, %180 ], [ %189, %182 ]
  store ptr %191, ptr %13, align 8, !tbaa !8
  %192 = load ptr, ptr %13, align 8, !tbaa !8
  %193 = icmp eq ptr %192, null
  br i1 %193, label %194, label %199

194:                                              ; preds = %190
  %195 = load ptr, ptr %5, align 8, !tbaa !3
  %196 = load ptr, ptr %12, align 8, !tbaa !8
  call void @Cudd_RecursiveDeref(ptr noundef %195, ptr noundef %196)
  %197 = load ptr, ptr %5, align 8, !tbaa !3
  %198 = load ptr, ptr %11, align 8, !tbaa !8
  call void @Cudd_RecursiveDeref(ptr noundef %197, ptr noundef %198)
  store ptr null, ptr %4, align 8
  store i32 1, ptr %15, align 4
  br label %228

199:                                              ; preds = %190
  br label %200

200:                                              ; preds = %199, %171
  %201 = load ptr, ptr %11, align 8, !tbaa !8
  %202 = ptrtoint ptr %201 to i64
  %203 = and i64 %202, -2
  %204 = inttoptr i64 %203 to ptr
  %205 = getelementptr inbounds nuw %struct.DdNode, ptr %204, i32 0, i32 1
  %206 = load i32, ptr %205, align 4, !tbaa !82
  %207 = add i32 %206, -1
  store i32 %207, ptr %205, align 4, !tbaa !82
  %208 = load ptr, ptr %12, align 8, !tbaa !8
  %209 = ptrtoint ptr %208 to i64
  %210 = and i64 %209, -2
  %211 = inttoptr i64 %210 to ptr
  %212 = getelementptr inbounds nuw %struct.DdNode, ptr %211, i32 0, i32 1
  %213 = load i32, ptr %212, align 4, !tbaa !82
  %214 = add i32 %213, -1
  store i32 %214, ptr %212, align 4, !tbaa !82
  %215 = load ptr, ptr %10, align 8, !tbaa !8
  %216 = load ptr, ptr %6, align 8, !tbaa !8
  %217 = icmp eq ptr %215, %216
  br i1 %217, label %218, label %222

218:                                              ; preds = %200
  %219 = load ptr, ptr %13, align 8, !tbaa !8
  %220 = load ptr, ptr %14, align 8, !tbaa !57
  %221 = getelementptr inbounds nuw %struct.NodeData, ptr %220, i32 0, i32 6
  store ptr %219, ptr %221, align 8, !tbaa !80
  br label %226

222:                                              ; preds = %200
  %223 = load ptr, ptr %13, align 8, !tbaa !8
  %224 = load ptr, ptr %14, align 8, !tbaa !57
  %225 = getelementptr inbounds nuw %struct.NodeData, ptr %224, i32 0, i32 7
  store ptr %223, ptr %225, align 8, !tbaa !81
  br label %226

226:                                              ; preds = %222, %218
  %227 = load ptr, ptr %13, align 8, !tbaa !8
  store ptr %227, ptr %4, align 8
  store i32 1, ptr %15, align 4
  br label %228

228:                                              ; preds = %226, %194, %166, %124, %109, %71, %65, %55, %42, %23
  call void @llvm.lifetime.end.p0(i64 8, ptr %14) #7
  call void @llvm.lifetime.end.p0(i64 8, ptr %13) #7
  call void @llvm.lifetime.end.p0(i64 8, ptr %12) #7
  call void @llvm.lifetime.end.p0(i64 8, ptr %11) #7
  call void @llvm.lifetime.end.p0(i64 8, ptr %10) #7
  call void @llvm.lifetime.end.p0(i64 8, ptr %9) #7
  call void @llvm.lifetime.end.p0(i64 8, ptr %8) #7
  %229 = load ptr, ptr %4, align 8
  ret ptr %229
}