; Function Attrs: nounwind uwtable
define internal fastcc ptr @UAbuildSubset(ptr noundef %0, ptr noundef %1, ptr noundef nonnull %2) unnamed_addr #0 {
  %4 = alloca ptr, align 8
  call void @llvm.lifetime.start.p0(i64 8, ptr nonnull %4) #10
  %5 = ptrtoint ptr %1 to i64
  %6 = and i64 %5, -2
  %7 = inttoptr i64 %6 to ptr
  %8 = load i32, ptr %7, align 8, !tbaa !27
  %9 = icmp eq i32 %8, 2147483647
  br i1 %9, label %98, label %10

10:                                               ; preds = %3
  %11 = getelementptr inbounds nuw i8, ptr %2, i64 24
  %12 = load ptr, ptr %11, align 8, !tbaa !46
  %13 = call i32 @st__lookup(ptr noundef %12, ptr noundef nonnull %7, ptr noundef nonnull %4) #10
  %.not = icmp eq i32 %13, 0
  br i1 %.not, label %30, label %14

14:                                               ; preds = %10
  %15 = load ptr, ptr %4, align 8, !tbaa !47
  %16 = getelementptr inbounds nuw i8, ptr %15, i64 21
  %17 = load i8, ptr %16, align 1, !tbaa !55
  %18 = icmp eq i8 %17, 1
  br i1 %18, label %19, label %22

19:                                               ; preds = %14
  %20 = getelementptr inbounds nuw i8, ptr %2, i64 8
  %21 = load ptr, ptr %20, align 8, !tbaa !71
  br label %98

22:                                               ; preds = %14
  %23 = icmp eq ptr %1, %7
  br i1 %23, label %24, label %27

24:                                               ; preds = %22
  %25 = getelementptr inbounds nuw i8, ptr %15, i64 24
  %26 = load ptr, ptr %25, align 8, !tbaa !73
  %.not74 = icmp eq ptr %26, null
  br i1 %.not74, label %35, label %98

27:                                               ; preds = %22
  %28 = getelementptr inbounds nuw i8, ptr %15, i64 32
  %29 = load ptr, ptr %28, align 8, !tbaa !74
  %.not73 = icmp eq ptr %29, null
  br i1 %.not73, label %35, label %98

30:                                               ; preds = %10
  %31 = getelementptr inbounds nuw i8, ptr %0, i64 616
  %32 = load ptr, ptr %31, align 8, !tbaa !26
  %33 = call i64 @fwrite(ptr nonnull @.str.3, i64 46, i64 1, ptr %32)
  %34 = getelementptr inbounds nuw i8, ptr %0, i64 624
  store i32 5, ptr %34, align 8, !tbaa !28
  br label %98

35:                                               ; preds = %24, %27
  %36 = getelementptr inbounds nuw i8, ptr %7, i64 16
  %37 = load ptr, ptr %36, align 8, !tbaa !56
  %38 = ptrtoint ptr %37 to i64
  %39 = and i64 %5, 1
  %40 = xor i64 %39, %38
  %41 = inttoptr i64 %40 to ptr
  %42 = getelementptr inbounds nuw i8, ptr %7, i64 24
  %43 = load ptr, ptr %42, align 8, !tbaa !56
  %44 = call fastcc ptr @UAbuildSubset(ptr noundef %0, ptr noundef %41, ptr noundef %2)
  %45 = icmp eq ptr %44, null
  br i1 %45, label %98, label %46

46:                                               ; preds = %35
  %47 = ptrtoint ptr %43 to i64
  %48 = xor i64 %39, %47
  %49 = inttoptr i64 %48 to ptr
  %50 = ptrtoint ptr %44 to i64
  %51 = and i64 %50, -2
  %52 = inttoptr i64 %51 to ptr
  %53 = getelementptr inbounds nuw i8, ptr %52, i64 4
  %54 = load i32, ptr %53, align 4, !tbaa !75
  %55 = add i32 %54, 1
  store i32 %55, ptr %53, align 4, !tbaa !75
  %56 = call fastcc ptr @UAbuildSubset(ptr noundef %0, ptr noundef %49, ptr noundef %2)
  %57 = icmp eq ptr %56, null
  br i1 %57, label %58, label %59

58:                                               ; preds = %46
  call void @Cudd_RecursiveDeref(ptr noundef %0, ptr noundef nonnull %44) #10
  br label %98

59:                                               ; preds = %46
  %60 = ptrtoint ptr %56 to i64
  %61 = and i64 %60, -2
  %62 = inttoptr i64 %61 to ptr
  %63 = getelementptr inbounds nuw i8, ptr %62, i64 4
  %64 = load i32, ptr %63, align 4, !tbaa !75
  %65 = add i32 %64, 1
  store i32 %65, ptr %63, align 4, !tbaa !75
  %66 = and i64 %50, 1
  %.not75 = icmp eq i64 %66, 0
  br i1 %.not75, label %80, label %67

67:                                               ; preds = %59
  %68 = xor i64 %60, 1
  %69 = inttoptr i64 %68 to ptr
  %70 = icmp eq i64 %51, %68
  br i1 %70, label %.thread, label %71

71:                                               ; preds = %67
  %72 = load i32, ptr %7, align 8, !tbaa !27
  %73 = call ptr @cuddUniqueInter(ptr noundef %0, i32 noundef %72, ptr noundef nonnull %52, ptr noundef %69) #10
  %74 = icmp eq ptr %73, null
  br i1 %74, label %75, label %.thread

75:                                               ; preds = %71
  call void @Cudd_RecursiveDeref(ptr noundef %0, ptr noundef %69) #10
  call void @Cudd_RecursiveDeref(ptr noundef %0, ptr noundef nonnull %52) #10
  br label %98

.thread:                                          ; preds = %67, %71
  %76 = phi ptr [ %73, %71 ], [ %52, %67 ]
  %77 = ptrtoint ptr %76 to i64
  %78 = xor i64 %77, 1
  %79 = inttoptr i64 %78 to ptr
  %.pre79 = inttoptr i64 %51 to ptr
  %.pre83 = and i64 %60, -2
  %.pre85 = inttoptr i64 %.pre83 to ptr
  br label %.thread76

80:                                               ; preds = %59
  %81 = icmp eq ptr %44, %56
  br i1 %81, label %.thread76, label %82

82:                                               ; preds = %80
  %83 = load i32, ptr %7, align 8, !tbaa !27
  %84 = call ptr @cuddUniqueInter(ptr noundef %0, i32 noundef %83, ptr noundef nonnull %44, ptr noundef nonnull %56) #10
  %85 = icmp eq ptr %84, null
  br i1 %85, label %86, label %.thread76

86:                                               ; preds = %82
  call void @Cudd_RecursiveDeref(ptr noundef %0, ptr noundef nonnull %56) #10
  call void @Cudd_RecursiveDeref(ptr noundef %0, ptr noundef nonnull %44) #10
  br label %98

.thread76:                                        ; preds = %80, %82, %.thread
  %.pre-phi86 = phi ptr [ %52, %80 ], [ %62, %82 ], [ %.pre85, %.thread ]
  %.pre-phi80 = phi ptr [ %52, %80 ], [ %52, %82 ], [ %.pre79, %.thread ]
  %.0 = phi ptr [ %44, %80 ], [ %84, %82 ], [ %79, %.thread ]
  %87 = getelementptr inbounds nuw i8, ptr %.pre-phi80, i64 4
  %88 = load i32, ptr %87, align 4, !tbaa !75
  %89 = add i32 %88, -1
  store i32 %89, ptr %87, align 4, !tbaa !75
  %90 = getelementptr inbounds nuw i8, ptr %.pre-phi86, i64 4
  %91 = load i32, ptr %90, align 4, !tbaa !75
  %92 = add i32 %91, -1
  store i32 %92, ptr %90, align 4, !tbaa !75
  %93 = load ptr, ptr %4, align 8, !tbaa !47
  br i1 %23, label %94, label %96

94:                                               ; preds = %.thread76
  %95 = getelementptr inbounds nuw i8, ptr %93, i64 24
  store ptr %.0, ptr %95, align 8, !tbaa !73
  br label %98

96:                                               ; preds = %.thread76
  %97 = getelementptr inbounds nuw i8, ptr %93, i64 32
  store ptr %.0, ptr %97, align 8, !tbaa !74
  br label %98

98:                                               ; preds = %94, %96, %35, %27, %24, %3, %86, %75, %58, %30, %19
  %.064 = phi ptr [ %21, %19 ], [ null, %58 ], [ null, %75 ], [ null, %86 ], [ null, %30 ], [ %1, %3 ], [ %26, %24 ], [ %29, %27 ], [ null, %35 ], [ %.0, %96 ], [ %.0, %94 ]
  call void @llvm.lifetime.end.p0(i64 8, ptr nonnull %4) #10
  ret ptr %.064
}